target datalayout = "e-m:e-p270:32:32-p271:32:32-p272:64:64-i64:64-i128:128-f80:128-n8:16:32:64-S128"
target triple = "x86_64-unknown-linux-gnu"

%struct.VirtIODevice = type { %struct.DeviceState, ptr, i8, i8, i16, i64, i64, i64, i64, ptr, i16, i32, i32, ptr, %struct.MemoryListener, i16, i8, i8, i8, i8, i8, i8, i8, i8, i8, ptr, ptr, i8, i8, ptr, ptr, %union.anon.1, %struct.EventNotifier, i8 }
%struct.DeviceState = type { %struct.Object, ptr, ptr, i8, i8, i64, ptr, i32, i8, ptr, %struct.NamedGPIOListHead, %struct.NamedClockListHead, %struct.BusStateHead, i32, i32, i32, %struct.ResettableState, ptr, %struct.MemReentrancyGuard }
%struct.Object = type { ptr, ptr, ptr, i32, ptr }
%struct.NamedGPIOListHead = type { ptr }
%struct.NamedClockListHead = type { ptr }
%struct.BusStateHead = type { ptr }
%struct.ResettableState = type { i32, i8, i8 }
%struct.MemReentrancyGuard = type { i8 }
%struct.MemoryListener = type { ptr, ptr, ptr, ptr, ptr, ptr, ptr, ptr, ptr, ptr, ptr, ptr, ptr, ptr, ptr, ptr, ptr, i32, ptr, ptr, %union.anon, %union.anon.0 }
%union.anon = type { %struct.QTailQLink }
%struct.QTailQLink = type { ptr, ptr }
%union.anon.0 = type { %struct.QTailQLink }
%union.anon.1 = type { %struct.QTailQLink }
%struct.EventNotifier = type { i32, i32, i8 }
%struct.VirtQueue = type { %struct.VRing, ptr, i16, i8, i16, i8, i16, i8, i16, i8, i8, i16, i32, i16, ptr, ptr, %struct.EventNotifier, %struct.EventNotifier, i8, %struct.anon }
%struct.VRing = type { i32, i32, i32, i64, i64, i64, ptr }
%struct.anon = type { ptr, ptr }
%struct.VirtQueueElement = type { i32, i32, i32, i32, i32, ptr, ptr, ptr, ptr }
%struct.iovec = type { ptr, i64 }

; Function Attrs: nounwind sspstrong uwtable
define internal void @dma_memory_unmap(ptr noundef %as, ptr noundef %buffer, i64 noundef %len, i32 noundef %dir, i64 noundef %access_len) #0 {
entry:
  %as.addr = alloca ptr, align 8
  %buffer.addr = alloca ptr, align 8
  %len.addr = alloca i64, align 8
  %dir.addr = alloca i32, align 4
  %access_len.addr = alloca i64, align 8
  store ptr %as, ptr %as.addr, align 8
  store ptr %buffer, ptr %buffer.addr, align 8
  store i64 %len, ptr %len.addr, align 8
  store i32 %dir, ptr %dir.addr, align 4
  store i64 %access_len, ptr %access_len.addr, align 8
  %0 = load ptr, ptr %as.addr, align 8
  %1 = load ptr, ptr %buffer.addr, align 8
  %2 = load i64, ptr %len.addr, align 8
  %3 = load i32, ptr %dir.addr, align 4
  %cmp = icmp eq i32 %3, 1
  %4 = load i64, ptr %access_len.addr, align 8
  call void @address_space_unmap(ptr noundef %0, ptr noundef %1, i64 noundef %2, i1 noundef zeroext %cmp, i64 noundef %4)
  ret void
}

; Function Attrs: nounwind sspstrong uwtable
define internal void @virtqueue_unmap_sg(ptr noundef %vq, ptr noundef %elem, i32 noundef %len) #0 {
entry:
  %vq.addr = alloca ptr, align 8
  %elem.addr = alloca ptr, align 8
  %len.addr = alloca i32, align 4
  %dma_as = alloca ptr, align 8
  %offset = alloca i32, align 4
  %i = alloca i32, align 4
  %size = alloca i64, align 8
  %_a6 = alloca i64, align 8
  %_b7 = alloca i64, align 8
  %tmp = alloca i64, align 8
  store ptr %vq, ptr %vq.addr, align 8
  store ptr %elem, ptr %elem.addr, align 8
  store i32 %len, ptr %len.addr, align 4
  %0 = load ptr, ptr %vq.addr, align 8
  %vdev = getelementptr inbounds %struct.VirtQueue, ptr %0, i32 0, i32 15
  %1 = load ptr, ptr %vdev, align 8
  %dma_as1 = getelementptr inbounds %struct.VirtIODevice, ptr %1, i32 0, i32 29
  %2 = load ptr, ptr %dma_as1, align 8
  store ptr %2, ptr %dma_as, align 8
  store i32 0, ptr %offset, align 4
  store i32 0, ptr %i, align 4
  br label %for.cond

for.cond:                                         ; preds = %for.inc, %entry
  %3 = load i32, ptr %i, align 4
  %4 = load ptr, ptr %elem.addr, align 8
  %in_num = getelementptr inbounds %struct.VirtQueueElement, ptr %4, i32 0, i32 4
  %5 = load i32, ptr %in_num, align 8
  %cmp = icmp ult i32 %3, %5
  br i1 %cmp, label %for.body, label %for.end

for.body:                                         ; preds = %for.cond
  %6 = load i32, ptr %len.addr, align 4
  %7 = load i32, ptr %offset, align 4
  %sub = sub i32 %6, %7
  %conv = zext i32 %sub to i64
  store i64 %conv, ptr %_a6, align 8
  %8 = load ptr, ptr %elem.addr, align 8
  %in_sg = getelementptr inbounds %struct.VirtQueueElement, ptr %8, i32 0, i32 7
  %9 = load ptr, ptr %in_sg, align 8
  %10 = load i32, ptr %i, align 4
  %idxprom = sext i32 %10 to i64
  %arrayidx = getelementptr %struct.iovec, ptr %9, i64 %idxprom
  %iov_len = getelementptr inbounds %struct.iovec, ptr %arrayidx, i32 0, i32 1
  %11 = load i64, ptr %iov_len, align 8
  store i64 %11, ptr %_b7, align 8
  %12 = load i64, ptr %_a6, align 8
  %13 = load i64, ptr %_b7, align 8
  %cmp2 = icmp ult i64 %12, %13
  br i1 %cmp2, label %cond.true, label %cond.false

cond.true:                                        ; preds = %for.body
  %14 = load i64, ptr %_a6, align 8
  br label %cond.end

cond.false:                                       ; preds = %for.body
  %15 = load i64, ptr %_b7, align 8
  br label %cond.end

cond.end:                                         ; preds = %cond.false, %cond.true
  %cond = phi i64 [ %14, %cond.true ], [ %15, %cond.false ]
  store i64 %cond, ptr %tmp, align 8
  %16 = load i64, ptr %tmp, align 8
  store i64 %16, ptr %size, align 8
  %17 = load ptr, ptr %dma_as, align 8
  %18 = load ptr, ptr %elem.addr, align 8
  %in_sg4 = getelementptr inbounds %struct.VirtQueueElement, ptr %18, i32 0, i32 7
  %19 = load ptr, ptr %in_sg4, align 8
  %20 = load i32, ptr %i, align 4
  %idxprom5 = sext i32 %20 to i64
  %arrayidx6 = getelementptr %struct.iovec, ptr %19, i64 %idxprom5
  %iov_base = getelementptr inbounds %struct.iovec, ptr %arrayidx6, i32 0, i32 0
  %21 = load ptr, ptr %iov_base, align 8
  %22 = load ptr, ptr %elem.addr, align 8
  %in_sg7 = getelementptr inbounds %struct.VirtQueueElement, ptr %22, i32 0, i32 7
  %23 = load ptr, ptr %in_sg7, align 8
  %24 = load i32, ptr %i, align 4
  %idxprom8 = sext i32 %24 to i64
  %arrayidx9 = getelementptr %struct.iovec, ptr %23, i64 %idxprom8
  %iov_len10 = getelementptr inbounds %struct.iovec, ptr %arrayidx9, i32 0, i32 1
  %25 = load i64, ptr %iov_len10, align 8
  %26 = load i64, ptr %size, align 8
  call void @dma_memory_unmap(ptr noundef %17, ptr noundef %21, i64 noundef %25, i32 noundef 1, i64 noundef %26)
  %27 = load i64, ptr %size, align 8
  %28 = load i32, ptr %offset, align 4
  %conv11 = zext i32 %28 to i64
  %add = add i64 %conv11, %27
  %conv12 = trunc i64 %add to i32
  store i32 %conv12, ptr %offset, align 4
  br label %for.inc

for.inc:                                          ; preds = %cond.end
  %29 = load i32, ptr %i, align 4
  %inc = add i32 %29, 1
  store i32 %inc, ptr %i, align 4
  br label %for.cond, !llvm.loop !8

for.end:                                          ; preds = %for.cond
  store i32 0, ptr %i, align 4
  br label %for.cond13

for.cond13:                                       ; preds = %for.inc28, %for.end
  %30 = load i32, ptr %i, align 4
  %31 = load ptr, ptr %elem.addr, align 8
  %out_num = getelementptr inbounds %struct.VirtQueueElement, ptr %31, i32 0, i32 3
  %32 = load i32, ptr %out_num, align 4
  %cmp14 = icmp ult i32 %30, %32
  br i1 %cmp14, label %for.body16, label %for.end30

for.body16:                                       ; preds = %for.cond13
  %33 = load ptr, ptr %dma_as, align 8
  %34 = load ptr, ptr %elem.addr, align 8
  %out_sg = getelementptr inbounds %struct.VirtQueueElement, ptr %34, i32 0, i32 8
  %35 = load ptr, ptr %out_sg, align 8
  %36 = load i32, ptr %i, align 4
  %idxprom17 = sext i32 %36 to i64
  %arrayidx18 = getelementptr %struct.iovec, ptr %35, i64 %idxprom17
  %iov_base19 = getelementptr inbounds %struct.iovec, ptr %arrayidx18, i32 0, i32 0
  %37 = load ptr, ptr %iov_base19, align 8
  %38 = load ptr, ptr %elem.addr, align 8
  %out_sg20 = getelementptr inbounds %struct.VirtQueueElement, ptr %38, i32 0, i32 8
  %39 = load ptr, ptr %out_sg20, align 8
  %40 = load i32, ptr %i, align 4
  %idxprom21 = sext i32 %40 to i64
  %arrayidx22 = getelementptr %struct.iovec, ptr %39, i64 %idxprom21
  %iov_len23 = getelementptr inbounds %struct.iovec, ptr %arrayidx22, i32 0, i32 1
  %41 = load i64, ptr %iov_len23, align 8
  %42 = load ptr, ptr %elem.addr, align 8
  %out_sg24 = getelementptr inbounds %struct.VirtQueueElement, ptr %42, i32 0, i32 8
  %43 = load ptr, ptr %out_sg24, align 8
  %44 = load i32, ptr %i, align 4
  %idxprom25 = sext i32 %44 to i64
  %arrayidx26 = getelementptr %struct.iovec, ptr %43, i64 %idxprom25
  %iov_len27 = getelementptr inbounds %struct.iovec, ptr %arrayidx26, i32 0, i32 1
  %45 = load i64, ptr %iov_len27, align 8
  call void @dma_memory_unmap(ptr noundef %33, ptr noundef %37, i64 noundef %41, i32 noundef 0, i64 noundef %45)
  br label %for.inc28

for.inc28:                                        ; preds = %for.body16
  %46 = load i32, ptr %i, align 4
  %inc29 = add i32 %46, 1
  store i32 %inc29, ptr %i, align 4
  br label %for.cond13, !llvm.loop !10

for.end30:                                        ; preds = %for.cond13
  ret void
}

; Function Attrs: nounwind sspstrong uwtable
define dso_local void @virtqueue_detach_element(ptr noundef %vq, ptr noundef %elem, i32 noundef %len) #0 {
entry:
  %vq.addr = alloca ptr, align 8
  %elem.addr = alloca ptr, align 8
  %len.addr = alloca i32, align 4
  store ptr %vq, ptr %vq.addr, align 8
  store ptr %elem, ptr %elem.addr, align 8
  store i32 %len, ptr %len.addr, align 4
  %0 = load ptr, ptr %elem.addr, align 8
  %ndescs = getelementptr inbounds %struct.VirtQueueElement, ptr %0, i32 0, i32 2
  %1 = load i32, ptr %ndescs, align 8
  %2 = load ptr, ptr %vq.addr, align 8
  %inuse = getelementptr inbounds %struct.VirtQueue, ptr %2, i32 0, i32 12
  %3 = load i32, ptr %inuse, align 4
  %sub = sub i32 %3, %1
  store i32 %sub, ptr %inuse, align 4
  %4 = load ptr, ptr %vq.addr, align 8
  %5 = load ptr, ptr %elem.addr, align 8
  %6 = load i32, ptr %len.addr, align 4
  call void @virtqueue_unmap_sg(ptr noundef %4, ptr noundef %5, i32 noundef %6)
  ret void
}