; Function Attrs: nounwind sspstrong uwtable
define dso_local void @virtqueue_detach_element(ptr noundef captures(none) %vq, ptr noundef readonly captures(none) %elem, i32 noundef %len) local_unnamed_addr #0 {
entry:
  %ndescs = getelementptr inbounds nuw i8, ptr %elem, i64 8
  %0 = load i32, ptr %ndescs, align 8
  %inuse = getelementptr inbounds nuw i8, ptr %vq, i64 76
  %1 = load i32, ptr %inuse, align 4
  %sub = sub i32 %1, %0
  store i32 %sub, ptr %inuse, align 4
  %2 = getelementptr i8, ptr %vq, i64 96
  %vq.val = load ptr, ptr %2, align 8
  %3 = getelementptr i8, ptr %vq.val, i64 472
  %vq.val.val = load ptr, ptr %3, align 8
  %in_num.i = getelementptr inbounds nuw i8, ptr %elem, i64 16
  %4 = load i32, ptr %in_num.i, align 8
  %cmp1.not.i = icmp eq i32 %4, 0
  br i1 %cmp1.not.i, label %for.cond13.preheader.i, label %for.body.lr.ph.i

for.body.lr.ph.i:                                 ; preds = %entry
  %in_sg.i = getelementptr inbounds nuw i8, ptr %elem, i64 40
  br label %for.body.i

for.cond13.preheader.i:                           ; preds = %for.body.i, %entry
  %out_num.i = getelementptr inbounds nuw i8, ptr %elem, i64 12
  %5 = load i32, ptr %out_num.i, align 4
  %cmp144.not.i = icmp eq i32 %5, 0
  br i1 %cmp144.not.i, label %virtqueue_unmap_sg.exit, label %for.body16.lr.ph.i

for.body16.lr.ph.i:                               ; preds = %for.cond13.preheader.i
  %out_sg.i = getelementptr inbounds nuw i8, ptr %elem, i64 48
  br label %for.body16.i

for.body.i:                                       ; preds = %for.body.i, %for.body.lr.ph.i
  %offset.03.i = phi i32 [ 0, %for.body.lr.ph.i ], [ %conv12.i, %for.body.i ]
  %i.02.i = phi i32 [ 0, %for.body.lr.ph.i ], [ %inc.i, %for.body.i ]
  %sub.i = sub i32 %len, %offset.03.i
  %conv.i = zext i32 %sub.i to i64
  %6 = load ptr, ptr %in_sg.i, align 8
  %idxprom.i = sext i32 %i.02.i to i64
  %arrayidx.i = getelementptr %struct.iovec, ptr %6, i64 %idxprom.i
  %iov_len.i = getelementptr inbounds nuw i8, ptr %arrayidx.i, i64 8
  %7 = load i64, ptr %iov_len.i, align 8
  %cond.i = tail call i64 @llvm.umin.i64(i64 %7, i64 %conv.i)
  %8 = load ptr, ptr %arrayidx.i, align 8
  tail call void @address_space_unmap(ptr noundef %vq.val.val, ptr noundef %8, i64 noundef %7, i1 noundef zeroext true, i64 noundef %cond.i) #23
  %9 = trunc nuw i64 %cond.i to i32
  %conv12.i = add i32 %offset.03.i, %9
  %inc.i = add nuw i32 %i.02.i, 1
  %10 = load i32, ptr %in_num.i, align 8
  %cmp.i = icmp ult i32 %inc.i, %10
  br i1 %cmp.i, label %for.body.i, label %for.cond13.preheader.i, !llvm.loop !12

for.body16.i:                                     ; preds = %for.body16.i, %for.body16.lr.ph.i
  %i.15.i = phi i32 [ 0, %for.body16.lr.ph.i ], [ %inc29.i, %for.body16.i ]
  %11 = load ptr, ptr %out_sg.i, align 8
  %idxprom17.i = sext i32 %i.15.i to i64
  %arrayidx18.i = getelementptr %struct.iovec, ptr %11, i64 %idxprom17.i
  %12 = load ptr, ptr %arrayidx18.i, align 8
  %iov_len23.i = getelementptr inbounds nuw i8, ptr %arrayidx18.i, i64 8
  %13 = load i64, ptr %iov_len23.i, align 8
  tail call void @address_space_unmap(ptr noundef %vq.val.val, ptr noundef %12, i64 noundef %13, i1 noundef zeroext false, i64 noundef %13) #23
  %inc29.i = add nuw i32 %i.15.i, 1
  %14 = load i32, ptr %out_num.i, align 4
  %cmp14.i = icmp ult i32 %inc29.i, %14
  br i1 %cmp14.i, label %for.body16.i, label %virtqueue_unmap_sg.exit, !llvm.loop !14

virtqueue_unmap_sg.exit:                          ; preds = %for.body16.i, %for.cond13.preheader.i
  ret void
}